; Function Attrs: nounwind uwtable
define internal void @fcdes(ptr noundef captures(none) %0) #0 {
  %2 = getelementptr inbounds nuw i8, ptr %0, i64 248
  %3 = load ptr, ptr %2, align 8, !tbaa !62
  %.not = icmp eq ptr %3, null
  br i1 %.not, label %31, label %4

4:                                                ; preds = %1
  %5 = tail call i32 @pthread_mutex_lock(ptr noundef nonnull %3) #10
  %6 = icmp eq i32 %5, 35
  br i1 %6, label %7, label %pmix_obj_update.exit

7:                                                ; preds = %4
  %8 = tail call ptr @__errno_location() #11
  store i32 35, ptr %8, align 4, !tbaa !29
  tail call void @perror(ptr noundef nonnull @.str.11) #12
  tail call void @abort() #13
  unreachable

pmix_obj_update.exit:                             ; preds = %4
  %9 = getelementptr inbounds nuw i8, ptr %3, i64 48
  %10 = load i32, ptr %9, align 8, !tbaa !30
  %11 = add nsw i32 %10, -1
  store i32 %11, ptr %9, align 8, !tbaa !30
  %12 = tail call i32 @pthread_mutex_unlock(ptr noundef nonnull %3) #10
  %13 = icmp eq i32 %11, 0
  br i1 %13, label %14, label %31

14:                                               ; preds = %pmix_obj_update.exit
  %15 = getelementptr inbounds nuw i8, ptr %3, i64 40
  %16 = load ptr, ptr %15, align 8, !tbaa !31
  %17 = getelementptr inbounds nuw i8, ptr %16, i64 48
  %18 = load ptr, ptr %17, align 8, !tbaa !32
  %19 = load ptr, ptr %18, align 8, !tbaa !35
  %.not6.i = icmp eq ptr %19, null
  br i1 %.not6.i, label %pmix_obj_run_destructors.exit, label %.lr.ph.i

.lr.ph.i:                                         ; preds = %14, %.lr.ph.i
  %20 = phi ptr [ %22, %.lr.ph.i ], [ %19, %14 ]
  %.07.i = phi ptr [ %21, %.lr.ph.i ], [ %18, %14 ]
  tail call void %20(ptr noundef nonnull %3) #10
  %21 = getelementptr inbounds nuw i8, ptr %.07.i, i64 8
  %22 = load ptr, ptr %21, align 8, !tbaa !35
  %.not.i = icmp eq ptr %22, null
  br i1 %.not.i, label %pmix_obj_run_destructors.exit, label %.lr.ph.i, !llvm.loop !36

pmix_obj_run_destructors.exit:                    ; preds = %.lr.ph.i, %14
  %23 = getelementptr inbounds nuw i8, ptr %3, i64 96
  %24 = load ptr, ptr %23, align 8, !tbaa !37
  %.not19 = icmp eq ptr %24, null
  br i1 %.not19, label %28, label %25

25:                                               ; preds = %pmix_obj_run_destructors.exit
  %26 = getelementptr inbounds nuw i8, ptr %3, i64 56
  %27 = load ptr, ptr %2, align 8, !tbaa !62
  tail call void %24(ptr noundef nonnull %26, ptr noundef %27) #10
  br label %30

28:                                               ; preds = %pmix_obj_run_destructors.exit
  %29 = load ptr, ptr %2, align 8, !tbaa !62
  tail call void @free(ptr noundef %29) #10
  br label %30

30:                                               ; preds = %28, %25
  store ptr null, ptr %2, align 8, !tbaa !62
  br label %31

31:                                               ; preds = %pmix_obj_update.exit, %30, %1
  %32 = getelementptr inbounds nuw i8, ptr %0, i64 256
  %33 = load ptr, ptr %32, align 8, !tbaa !68
  %.not20 = icmp eq ptr %33, null
  br i1 %.not20, label %37, label %34

34:                                               ; preds = %31
  %35 = getelementptr inbounds nuw i8, ptr %0, i64 264
  %36 = load i64, ptr %35, align 8, !tbaa !69
  tail call void @PMIx_Info_free(ptr noundef nonnull %33, i64 noundef %36) #10
  store ptr null, ptr %32, align 8, !tbaa !68
  br label %37

37:                                               ; preds = %34, %31
  %38 = getelementptr inbounds nuw i8, ptr %0, i64 272
  %39 = load ptr, ptr %38, align 8, !tbaa !70
  %.not21 = icmp eq ptr %39, null
  br i1 %.not21, label %43, label %40

40:                                               ; preds = %37
  %41 = getelementptr inbounds nuw i8, ptr %0, i64 280
  %42 = load i64, ptr %41, align 8, !tbaa !71
  tail call void @PMIx_App_free(ptr noundef nonnull %39, i64 noundef %42) #10
  store ptr null, ptr %38, align 8, !tbaa !70
  br label %43

43:                                               ; preds = %40, %37
  ret void
}